; Function Attrs: nofree norecurse nosync nounwind memory(readwrite, inaccessiblemem: none) uwtable
define internal void @pool_free(ptr noundef captures(none) %0, ptr noundef %1) #4 {
  %3 = getelementptr inbounds i8, ptr %1, i64 -16
  %4 = getelementptr inbounds nuw i8, ptr %0, i64 8
  br label %5

5:                                                ; preds = %5, %2
  %.031 = phi ptr [ null, %2 ], [ %.0, %5 ]
  %.0.in = phi ptr [ %4, %2 ], [ %9, %5 ]
  %.0 = load ptr, ptr %.0.in, align 8, !tbaa !24
  %6 = icmp ne ptr %.0, null
  %7 = icmp ult ptr %.0, %3
  %8 = select i1 %6, i1 %7, i1 false
  %9 = getelementptr inbounds nuw i8, ptr %.0, i64 8
  br i1 %8, label %5, label %10, !llvm.loop !28

10:                                               ; preds = %5
  %.not = icmp eq ptr %.031, null
  br i1 %.not, label %13, label %11

11:                                               ; preds = %10
  %12 = getelementptr inbounds nuw i8, ptr %.031, i64 8
  store ptr %3, ptr %12, align 8, !tbaa !14
  br label %14

13:                                               ; preds = %10
  store ptr %3, ptr %4, align 8, !tbaa !17
  br label %14

14:                                               ; preds = %13, %11
  %15 = getelementptr inbounds i8, ptr %1, i64 -8
  store ptr %.0, ptr %15, align 8, !tbaa !14
  br i1 %6, label %16, label %24

16:                                               ; preds = %14
  %17 = load i64, ptr %3, align 8, !tbaa !10
  %18 = getelementptr inbounds nuw i8, ptr %3, i64 %17
  %19 = icmp eq ptr %18, %.0
  br i1 %19, label %20, label %24

20:                                               ; preds = %16
  %21 = load i64, ptr %.0, align 8, !tbaa !10
  %22 = add i64 %21, %17
  store i64 %22, ptr %3, align 8, !tbaa !10
  %23 = load ptr, ptr %9, align 8, !tbaa !14
  store ptr %23, ptr %15, align 8, !tbaa !14
  br label %24

24:                                               ; preds = %20, %16, %14
  %25 = phi ptr [ %23, %20 ], [ %.0, %16 ], [ null, %14 ]
  br i1 %.not, label %34, label %26

26:                                               ; preds = %24
  %27 = load i64, ptr %.031, align 8, !tbaa !10
  %28 = getelementptr inbounds nuw i8, ptr %.031, i64 %27
  %29 = icmp eq ptr %28, %3
  br i1 %29, label %30, label %34

30:                                               ; preds = %26
  %31 = load i64, ptr %3, align 8, !tbaa !10
  %32 = add i64 %31, %27
  store i64 %32, ptr %.031, align 8, !tbaa !10
  %33 = getelementptr inbounds nuw i8, ptr %.031, i64 8
  store ptr %25, ptr %33, align 8, !tbaa !14
  br label %34

34:                                               ; preds = %30, %26, %24
  ret void
}